; Function Attrs: nofree norecurse nosync nounwind memory(read, inaccessiblemem: none) uwtable
define range(i32 1, 1048577) i32 @Abc_SclComputeReverseLevel(ptr noundef readonly captures(none) %0) local_unnamed_addr #6 {
  %2 = getelementptr i8, ptr %0, i64 44
  %.val = load i32, ptr %2, align 4, !tbaa !60
  %3 = icmp sgt i32 %.val, 0
  br i1 %3, label %.lr.ph, label %.critedge

.lr.ph:                                           ; preds = %1
  %.val8 = load ptr, ptr %0, align 8, !tbaa !31
  %4 = getelementptr i8, ptr %0, i64 48
  %.val9 = load ptr, ptr %4, align 8, !tbaa !62
  %5 = getelementptr i8, ptr %.val8, i64 32
  %.val8.val = load ptr, ptr %5, align 8, !tbaa !3
  %6 = getelementptr i8, ptr %.val8.val, i64 8
  %.val8.val.val = load ptr, ptr %6, align 8, !tbaa !26
  %wide.trip.count = zext nneg i32 %.val to i64
  br label %7

7:                                                ; preds = %.lr.ph, %7
  %indvars.iv = phi i64 [ 0, %.lr.ph ], [ %indvars.iv.next, %7 ]
  %.011 = phi i32 [ 0, %.lr.ph ], [ %16, %7 ]
  %8 = getelementptr inbounds nuw i32, ptr %.val9, i64 %indvars.iv
  %9 = load i32, ptr %8, align 4, !tbaa !33
  %10 = sext i32 %9 to i64
  %11 = getelementptr inbounds ptr, ptr %.val8.val.val, i64 %10
  %12 = load ptr, ptr %11, align 8, !tbaa !27
  %13 = getelementptr inbounds nuw i8, ptr %12, i64 20
  %14 = load i32, ptr %13, align 4
  %15 = lshr i32 %14, 12
  %16 = tail call noundef i32 @llvm.smax.i32(i32 %.011, i32 %15)
  %indvars.iv.next = add nuw nsw i64 %indvars.iv, 1
  %exitcond.not = icmp eq i64 %indvars.iv.next, %wide.trip.count
  br i1 %exitcond.not, label %.critedge.loopexit, label %7, !llvm.loop !65

.critedge.loopexit:                               ; preds = %7
  %17 = add nuw nsw i32 %16, 1
  br label %.critedge

.critedge:                                        ; preds = %.critedge.loopexit, %1
  %.0.lcssa = phi i32 [ 1, %1 ], [ %17, %.critedge.loopexit ]
  ret i32 %.0.lcssa
}